
b3.bin: formato do arquivo binary
b3.bin
arquitetura: UNKNOWN!, sinalizações 0x00000000:

começar o endereço 0x00000000

Seções:
Idx Name          Tam.      VMA       LMA       File off  Algn
  0 .data         00001488  00000000  00000000  00000000  2**0
                  CONTENTS, ALLOC, LOAD, DATA
SYMBOL TABLE:
nenhum símbolo



Desmontagem da seção .data:

00000000 <.data>:
       0:	00000001 	andeq	r0, r0, r1
       4:	e1a00000 	nop			; (mov r0, r0)
       8:	e1a00000 	nop			; (mov r0, r0)
       c:	e1a00000 	nop			; (mov r0, r0)
      10:	e59ff018 	ldr	pc, [pc, #24]	; 0x30
      14:	e59ff018 	ldr	pc, [pc, #24]	; 0x34
      18:	e59ff018 	ldr	pc, [pc, #24]	; 0x38
      1c:	e59ff018 	ldr	pc, [pc, #24]	; 0x3c
      20:	e59ff018 	ldr	pc, [pc, #24]	; 0x40
      24:	e1a00000 	nop			; (mov r0, r0)
      28:	e59ff018 	ldr	pc, [pc, #24]	; 0x48
      2c:	e59ff018 	ldr	pc, [pc, #24]	; 0x4c
      30:	80000050 	andhi	r0, r0, r0, asr r0
      34:	4030ce24 	eorsmi	ip, r0, r4, lsr #28
      38:	4030ce28 	eorsmi	ip, r0, r8, lsr #28
      3c:	4030ce2c 	eorsmi	ip, r0, ip, lsr #28
      40:	4030ce30 	eorsmi	ip, r0, r0, lsr lr
      44:	e1a00000 	nop			; (mov r0, r0)
      48:	4030ce38 	eorsmi	ip, r0, r8, lsr lr
      4c:	4030ce3c 	eorsmi	ip, r0, ip, lsr lr
      50:	eb000025 	bl	0xec
      54:	e10f0000 	mrs	r0, CPSR
      58:	e3c0001f 	bic	r0, r0, #31
      5c:	e3800013 	orr	r0, r0, #19
      60:	e38000c0 	orr	r0, r0, #192	; 0xc0
      64:	e129f000 	msr	CPSR_fc, r0
      68:	e3a000d2 	mov	r0, #210	; 0xd2
      6c:	e121f000 	msr	CPSR_c, r0
      70:	e59fde64 	ldr	sp, [pc, #3684]	; 0xedc
      74:	e59f0e64 	ldr	r0, [pc, #3684]	; 0xee0
      78:	e59f1e64 	ldr	r1, [pc, #3684]	; 0xee4
      7c:	e5801000 	str	r1, [r0]
      80:	e59f0e60 	ldr	r0, [pc, #3680]	; 0xee8
      84:	e59f1e60 	ldr	r1, [pc, #3680]	; 0xeec
      88:	e5801000 	str	r1, [r0]
      8c:	eb00001d 	bl	0x108
      90:	eb0001be 	bl	0x790
      94:	eb000064 	bl	0x22c
      98:	eb0001e2 	bl	0x828
      9c:	e10f0000 	mrs	r0, CPSR
      a0:	e3c00080 	bic	r0, r0, #128	; 0x80
      a4:	e129f000 	msr	CPSR_fc, r0
      a8:	eb00037b 	bl	0xe9c
      ac:	e59f1e3c 	ldr	r1, [pc, #3644]	; 0xef0
      b0:	e4d11001 	ldrb	r1, [r1], #1
      b4:	e3510001 	cmp	r1, #1
      b8:	0a000001 	beq	0xc4
      bc:	eb000139 	bl	0x5a8
      c0:	eafffff9 	b	0xac
      c4:	e59f1e24 	ldr	r1, [pc, #3620]	; 0xef0
      c8:	e3a00000 	mov	r0, #0
      cc:	e4c10001 	strb	r0, [r1], #1
      d0:	e59f1e1c 	ldr	r1, [pc, #3612]	; 0xef4
      d4:	e5910000 	ldr	r0, [r1]
      d8:	e59f1e18 	ldr	r1, [pc, #3608]	; 0xef8
      dc:	e1500001 	cmp	r0, r1
      e0:	b59ffe14 	ldrlt	pc, [pc, #3604]	; 0xefc
      e4:	eb000144 	bl	0x5fc
      e8:	e1a0f000 	mov	pc, r0
      ec:	e92d4007 	push	{r0, r1, r2, lr}
      f0:	ee110f10 	mrc	15, 0, r0, cr1, cr0, {0}
      f4:	e3c00a02 	bic	r0, r0, #8192	; 0x2000
      f8:	ee010f10 	mcr	15, 0, r0, cr1, cr0, {0}
      fc:	e59f0dfc 	ldr	r0, [pc, #3580]	; 0xf00
     100:	ee0c0f10 	mcr	15, 0, r0, cr12, cr0, {0}
     104:	e8bd8007 	pop	{r0, r1, r2, pc}
     108:	e59f0df4 	ldr	r0, [pc, #3572]	; 0xf04
     10c:	e59f1df4 	ldr	r1, [pc, #3572]	; 0xf08
     110:	e5801000 	str	r1, [r0]
     114:	e59f0df0 	ldr	r0, [pc, #3568]	; 0xf0c
     118:	e5901000 	ldr	r1, [r0]
     11c:	e3c1161e 	bic	r1, r1, #31457280	; 0x1e00000
     120:	e5801000 	str	r1, [r0]
     124:	e12fff1e 	bx	lr
     128:	e92d4003 	push	{r0, r1, lr}
     12c:	e59f0dd8 	ldr	r0, [pc, #3544]	; 0xf0c
     130:	e5901000 	ldr	r1, [r0]
     134:	e3811201 	orr	r1, r1, #268435456	; 0x10000000
     138:	e5801000 	str	r1, [r0]
     13c:	e59f0dcc 	ldr	r0, [pc, #3532]	; 0xf10
     140:	e5901000 	ldr	r1, [r0]
     144:	e3811201 	orr	r1, r1, #268435456	; 0x10000000
     148:	e5801000 	str	r1, [r0]
     14c:	e59f0dc0 	ldr	r0, [pc, #3520]	; 0xf14
     150:	e5901000 	ldr	r1, [r0]
     154:	e3811201 	orr	r1, r1, #268435456	; 0x10000000
     158:	e5801000 	str	r1, [r0]
     15c:	e59f0db4 	ldr	r0, [pc, #3508]	; 0xf18
     160:	e3a01004 	mov	r1, #4
     164:	e5801000 	str	r1, [r0]
     168:	e8bd8003 	pop	{r0, r1, pc}
     16c:	e92d4003 	push	{r0, r1, lr}
     170:	e59f0da4 	ldr	r0, [pc, #3492]	; 0xf1c
     174:	e3a01602 	mov	r1, #2097152	; 0x200000
     178:	e5801000 	str	r1, [r0]
     17c:	e8bd8003 	pop	{r0, r1, pc}
     180:	e92d4003 	push	{r0, r1, lr}
     184:	e59f0d94 	ldr	r0, [pc, #3476]	; 0xf20
     188:	e3a01602 	mov	r1, #2097152	; 0x200000
     18c:	e5801000 	str	r1, [r0]
     190:	e8bd8003 	pop	{r0, r1, pc}
     194:	e92d4003 	push	{r0, r1, lr}
     198:	e59f0d7c 	ldr	r0, [pc, #3452]	; 0xf1c
     19c:	e3a01501 	mov	r1, #4194304	; 0x400000
     1a0:	e5801000 	str	r1, [r0]
     1a4:	e8bd8003 	pop	{r0, r1, pc}
     1a8:	e92d4003 	push	{r0, r1, lr}
     1ac:	e59f0d6c 	ldr	r0, [pc, #3436]	; 0xf20
     1b0:	e3a01501 	mov	r1, #4194304	; 0x400000
     1b4:	e5801000 	str	r1, [r0]
     1b8:	e92d4003 	push	{r0, r1, lr}
     1bc:	e59f0d58 	ldr	r0, [pc, #3416]	; 0xf1c
     1c0:	e3a01502 	mov	r1, #8388608	; 0x800000
     1c4:	e5801000 	str	r1, [r0]
     1c8:	e8bd8003 	pop	{r0, r1, pc}
     1cc:	e92d4003 	push	{r0, r1, lr}
     1d0:	e59f0d48 	ldr	r0, [pc, #3400]	; 0xf20
     1d4:	e3a01502 	mov	r1, #8388608	; 0x800000
     1d8:	e5801000 	str	r1, [r0]
     1dc:	e8bd8003 	pop	{r0, r1, pc}
     1e0:	e92d4003 	push	{r0, r1, lr}
     1e4:	e59f0d30 	ldr	r0, [pc, #3376]	; 0xf1c
     1e8:	e3a01401 	mov	r1, #16777216	; 0x1000000
     1ec:	e5801000 	str	r1, [r0]
     1f0:	e8bd8003 	pop	{r0, r1, pc}
     1f4:	e92d4003 	push	{r0, r1, lr}
     1f8:	e59f0d20 	ldr	r0, [pc, #3360]	; 0xf20
     1fc:	e3a01401 	mov	r1, #16777216	; 0x1000000
     200:	e5801000 	str	r1, [r0]
     204:	e8bd8003 	pop	{r0, r1, pc}
     208:	e92d4003 	push	{r0, r1, lr}
     20c:	e59f0d10 	ldr	r0, [pc, #3344]	; 0xf24
     210:	e3a01201 	mov	r1, #268435456	; 0x10000000
     214:	e5801000 	str	r1, [r0]
     218:	eafffff0 	b	0x1e0
     21c:	e59f0d04 	ldr	r0, [pc, #3332]	; 0xf28
     220:	eb000126 	bl	0x6c0
     224:	e8bd8003 	pop	{r0, r1, pc}
     228:	e12fff1e 	bx	lr
     22c:	e92d4003 	push	{r0, r1, lr}
     230:	e59f0cf4 	ldr	r0, [pc, #3316]	; 0xf2c
     234:	e3a01002 	mov	r1, #2
     238:	e5801000 	str	r1, [r0]
     23c:	e59f0cec 	ldr	r0, [pc, #3308]	; 0xf30
     240:	e5801000 	str	r1, [r0]
     244:	e59f0ce8 	ldr	r0, [pc, #3304]	; 0xf34
     248:	e59f1ce8 	ldr	r1, [pc, #3304]	; 0xf38
     24c:	e580106c 	str	r1, [r0, #108]	; 0x6c
     250:	e59f1ce4 	ldr	r1, [pc, #3300]	; 0xf3c
     254:	e5801070 	str	r1, [r0, #112]	; 0x70
     258:	e3a01048 	mov	r1, #72	; 0x48
     25c:	e5801054 	str	r1, [r0, #84]	; 0x54
     260:	e59f0ccc 	ldr	r0, [pc, #3276]	; 0xf34
     264:	e3a01001 	mov	r1, #1
     268:	e5801040 	str	r1, [r0, #64]	; 0x40
     26c:	e5901044 	ldr	r1, [r0, #68]	; 0x44
     270:	e2011001 	and	r1, r1, #1
     274:	e3510000 	cmp	r1, #0
     278:	1afffffb 	bne	0x26c
     27c:	e8bd8003 	pop	{r0, r1, pc}
     280:	e92d4007 	push	{r0, r1, r2, lr}
     284:	e1a02000 	mov	r2, r0
     288:	e2020070 	and	r0, r2, #112	; 0x70
     28c:	e1a00220 	lsr	r0, r0, #4
     290:	eb0000cb 	bl	0x5c4
     294:	eb000153 	bl	0x7e8
     298:	e202000f 	and	r0, r2, #15
     29c:	e2800030 	add	r0, r0, #48	; 0x30
     2a0:	eb000150 	bl	0x7e8
     2a4:	e8bd8007 	pop	{r0, r1, r2, pc}
     2a8:	e92d4007 	push	{r0, r1, r2, lr}
     2ac:	e59f1c80 	ldr	r1, [pc, #3200]	; 0xf34
     2b0:	e5910008 	ldr	r0, [r1, #8]
     2b4:	ebfffff1 	bl	0x280
     2b8:	e3a0003a 	mov	r0, #58	; 0x3a
     2bc:	eb000149 	bl	0x7e8
     2c0:	e5910004 	ldr	r0, [r1, #4]
     2c4:	ebffffed 	bl	0x280
     2c8:	e3a0003a 	mov	r0, #58	; 0x3a
     2cc:	eb000145 	bl	0x7e8
     2d0:	e5910000 	ldr	r0, [r1]
     2d4:	ebffffe9 	bl	0x280
     2d8:	e8bd8007 	pop	{r0, r1, r2, pc}
     2dc:	e92d4007 	push	{r0, r1, r2, lr}
     2e0:	ebfffff0 	bl	0x2a8
     2e4:	e8bd8007 	pop	{r0, r1, r2, pc}
     2e8:	e92d403c 	push	{r2, r3, r4, r5, lr}
     2ec:	e1a02000 	mov	r2, r0
     2f0:	e3a05000 	mov	r5, #0
     2f4:	e3510000 	cmp	r1, #0
     2f8:	1a000001 	bne	0x304
     2fc:	e3e00000 	mvn	r0, #0
     300:	ea000015 	b	0x35c
     304:	e4d23001 	ldrb	r3, [r2], #1
     308:	e3530041 	cmp	r3, #65	; 0x41
     30c:	aa000001 	bge	0x318
     310:	e3e00000 	mvn	r0, #0
     314:	ea000010 	b	0x35c
     318:	e353005a 	cmp	r3, #90	; 0x5a
     31c:	da000007 	ble	0x340
     320:	e3530061 	cmp	r3, #97	; 0x61
     324:	aa000001 	bge	0x330
     328:	e3e00000 	mvn	r0, #0
     32c:	ea00000a 	b	0x35c
     330:	e353007a 	cmp	r3, #122	; 0x7a
     334:	da000003 	ble	0x348
     338:	e3e00000 	mvn	r0, #0
     33c:	ea000006 	b	0x35c
     340:	e2833020 	add	r3, r3, #32
     344:	e7c03005 	strb	r3, [r0, r5]
     348:	e2855001 	add	r5, r5, #1
     34c:	e2411001 	sub	r1, r1, #1
     350:	e3510000 	cmp	r1, #0
     354:	aaffffea 	bge	0x304
     358:	e3a00001 	mov	r0, #1
     35c:	e8bd803c 	pop	{r2, r3, r4, r5, pc}
     360:	e92d40fe 	push	{r1, r2, r3, r4, r5, r6, r7, lr}
     364:	e1520001 	cmp	r2, r1
     368:	ca00000b 	bgt	0x39c
     36c:	e4d35001 	ldrb	r5, [r3], #1
     370:	e4d46001 	ldrb	r6, [r4], #1
     374:	e1550006 	cmp	r5, r6
     378:	1a000007 	bne	0x39c
     37c:	e2411001 	sub	r1, r1, #1
     380:	e2422001 	sub	r2, r2, #1
     384:	e3520000 	cmp	r2, #0
     388:	1afffff7 	bne	0x36c
     38c:	e3510000 	cmp	r1, #0
     390:	1a000003 	bne	0x3a4
     394:	e3a00000 	mov	r0, #0
     398:	ea000005 	b	0x3b4
     39c:	e3a00001 	mov	r0, #1
     3a0:	ea000003 	b	0x3b4
     3a4:	e4d35001 	ldrb	r5, [r3], #1
     3a8:	e3550020 	cmp	r5, #32
     3ac:	0afffff8 	beq	0x394
     3b0:	e3a00001 	mov	r0, #1
     3b4:	e8bd80fe 	pop	{r1, r2, r3, r4, r5, r6, r7, pc}
     3b8:	e92d403f 	push	{r0, r1, r2, r3, r4, r5, lr}
     3bc:	e59f1b7c 	ldr	r1, [pc, #2940]	; 0xf40
     3c0:	e3a02000 	mov	r2, #0
     3c4:	e59f0b5c 	ldr	r0, [pc, #2908]	; 0xf28
     3c8:	eb0000bc 	bl	0x6c0
     3cc:	eb00010d 	bl	0x808
     3d0:	e350000d 	cmp	r0, #13
     3d4:	0a000003 	beq	0x3e8
     3d8:	e4c10001 	strb	r0, [r1], #1
     3dc:	e2822001 	add	r2, r2, #1
     3e0:	eb000100 	bl	0x7e8
     3e4:	eafffff8 	b	0x3cc
     3e8:	e59f0b54 	ldr	r0, [pc, #2900]	; 0xf44
     3ec:	eb0000b3 	bl	0x6c0
     3f0:	e59f1b50 	ldr	r1, [pc, #2896]	; 0xf48
     3f4:	e4c12001 	strb	r2, [r1], #1
     3f8:	e59f1b4c 	ldr	r1, [pc, #2892]	; 0xf4c
     3fc:	e3a02000 	mov	r2, #0
     400:	e59f0b20 	ldr	r0, [pc, #2848]	; 0xf28
     404:	eb0000ad 	bl	0x6c0
     408:	eb0000fe 	bl	0x808
     40c:	e350000d 	cmp	r0, #13
     410:	0a000003 	beq	0x424
     414:	e4c10001 	strb	r0, [r1], #1
     418:	e2822001 	add	r2, r2, #1
     41c:	eb0000f1 	bl	0x7e8
     420:	eafffff8 	b	0x408
     424:	e59f0b18 	ldr	r0, [pc, #2840]	; 0xf44
     428:	eb0000a4 	bl	0x6c0
     42c:	e59f1b1c 	ldr	r1, [pc, #2844]	; 0xf50
     430:	e4c12001 	strb	r2, [r1], #1
     434:	e59f2b0c 	ldr	r2, [pc, #2828]	; 0xf48
     438:	e4d21001 	ldrb	r1, [r2], #1
     43c:	e59f0afc 	ldr	r0, [pc, #2812]	; 0xf40
     440:	ebffffa8 	bl	0x2e8
     444:	e59f2b04 	ldr	r2, [pc, #2820]	; 0xf50
     448:	e4d21001 	ldrb	r1, [r2], #1
     44c:	e59f0af8 	ldr	r0, [pc, #2808]	; 0xf4c
     450:	ebffffa4 	bl	0x2e8
     454:	e59f0acc 	ldr	r0, [pc, #2764]	; 0xf28
     458:	eb000098 	bl	0x6c0
     45c:	e59f2ae4 	ldr	r2, [pc, #2788]	; 0xf48
     460:	e4d20001 	ldrb	r0, [r2], #1
     464:	e59f2ae4 	ldr	r2, [pc, #2788]	; 0xf50
     468:	e4d21001 	ldrb	r1, [r2], #1
     46c:	e59f2acc 	ldr	r2, [pc, #2764]	; 0xf40
     470:	e59f3ad4 	ldr	r3, [pc, #2772]	; 0xf4c
     474:	ebffffb9 	bl	0x360
     478:	e3500000 	cmp	r0, #0
     47c:	0a000002 	beq	0x48c
     480:	ba000003 	blt	0x494
     484:	e59f0ac8 	ldr	r0, [pc, #2760]	; 0xf54
     488:	ea000002 	b	0x498
     48c:	e59f0ac4 	ldr	r0, [pc, #2756]	; 0xf58
     490:	ea000000 	b	0x498
     494:	e59f0ac0 	ldr	r0, [pc, #2752]	; 0xf5c
     498:	eb000088 	bl	0x6c0
     49c:	e8bd803f 	pop	{r0, r1, r2, r3, r4, r5, pc}
     4a0:	e1a02000 	mov	r2, r0
     4a4:	e1a03001 	mov	r3, r1
     4a8:	e3a00000 	mov	r0, #0
     4ac:	e1520003 	cmp	r2, r3
     4b0:	ba000002 	blt	0x4c0
     4b4:	e0422003 	sub	r2, r2, r3
     4b8:	e2800001 	add	r0, r0, #1
     4bc:	eafffffa 	b	0x4ac
     4c0:	e12fff1e 	bx	lr
     4c4:	e92d4007 	push	{r0, r1, r2, lr}
     4c8:	e0811000 	add	r1, r1, r0
     4cc:	e3a02000 	mov	r2, #0
     4d0:	e1500001 	cmp	r0, r1
     4d4:	e4c02001 	strb	r2, [r0], #1
     4d8:	bafffffc 	blt	0x4d0
     4dc:	e8bd8007 	pop	{r0, r1, r2, pc}
     4e0:	e92d400f 	push	{r0, r1, r2, r3, lr}
     4e4:	e1a02000 	mov	r2, r0
     4e8:	e1a03001 	mov	r3, r1
     4ec:	e59f0a6c 	ldr	r0, [pc, #2668]	; 0xf60
     4f0:	e3a01002 	mov	r1, #2
     4f4:	eb00007a 	bl	0x6e4
     4f8:	e1a00002 	mov	r0, r2
     4fc:	eb00003e 	bl	0x5fc
     500:	e59f0a5c 	ldr	r0, [pc, #2652]	; 0xf64
     504:	e3a01005 	mov	r1, #5
     508:	eb000075 	bl	0x6e4
     50c:	e59f0a4c 	ldr	r0, [pc, #2636]	; 0xf60
     510:	e3a01002 	mov	r1, #2
     514:	eb000072 	bl	0x6e4
     518:	e4920004 	ldr	r0, [r2], #4
     51c:	eb000036 	bl	0x5fc
     520:	e59f0a1c 	ldr	r0, [pc, #2588]	; 0xf44
     524:	e3a01002 	mov	r1, #2
     528:	eb00006d 	bl	0x6e4
     52c:	e2533004 	subs	r3, r3, #4
     530:	1affffed 	bne	0x4ec
     534:	e8bd800f 	pop	{r0, r1, r2, r3, pc}
     538:	e92d401e 	push	{r1, r2, r3, r4, lr}
     53c:	e3a04000 	mov	r4, #0
     540:	e3a0500f 	mov	r5, #15
     544:	e3a00000 	mov	r0, #0
     548:	e4d10001 	ldrb	r0, [r1], #1
     54c:	eb000008 	bl	0x574
     550:	e0000005 	and	r0, r0, r5
     554:	e0844000 	add	r4, r4, r0
     558:	e2422001 	sub	r2, r2, #1
     55c:	e3520000 	cmp	r2, #0
     560:	0a000001 	beq	0x56c
     564:	e1a04204 	lsl	r4, r4, #4
     568:	eafffff5 	b	0x544
     56c:	e1a00004 	mov	r0, r4
     570:	e8bd801e 	pop	{r1, r2, r3, r4, pc}
     574:	e92d403e 	push	{r1, r2, r3, r4, r5, lr}
     578:	e20000ff 	and	r0, r0, #255	; 0xff
     57c:	e3500039 	cmp	r0, #57	; 0x39
     580:	ca000001 	bgt	0x58c
     584:	e2400030 	sub	r0, r0, #48	; 0x30
     588:	ea000000 	b	0x590
     58c:	e2400057 	sub	r0, r0, #87	; 0x57
     590:	e8bd803e 	pop	{r1, r2, r3, r4, r5, pc}
     594:	e3e0120f 	mvn	r1, #-268435456	; 0xf0000000
     598:	e2411001 	sub	r1, r1, #1
     59c:	e3510000 	cmp	r1, #0
     5a0:	1afffffc 	bne	0x598
     5a4:	e12fff1e 	bx	lr
     5a8:	e92d4007 	push	{r0, r1, r2, lr}
     5ac:	e59f0980 	ldr	r0, [pc, #2432]	; 0xf34
     5b0:	e5d01000 	ldrb	r1, [r0]
     5b4:	e5d02000 	ldrb	r2, [r0]
     5b8:	e1520001 	cmp	r2, r1
     5bc:	0afffffc 	beq	0x5b4
     5c0:	e8bd8007 	pop	{r0, r1, r2, pc}
     5c4:	e2800030 	add	r0, r0, #48	; 0x30
     5c8:	e12fff1e 	bx	lr
     5cc:	e92d4007 	push	{r0, r1, r2, lr}
     5d0:	e59f1990 	ldr	r1, [pc, #2448]	; 0xf68
     5d4:	e7d10000 	ldrb	r0, [r1, r0]
     5d8:	e8bd8007 	pop	{r0, r1, r2, pc}
     5dc:	e92d4007 	push	{r0, r1, r2, lr}
     5e0:	e3a0100a 	mov	r1, #10
     5e4:	ebffffad 	bl	0x4a0
     5e8:	e2800030 	add	r0, r0, #48	; 0x30
     5ec:	eb00007d 	bl	0x7e8
     5f0:	e2820030 	add	r0, r2, #48	; 0x30
     5f4:	eb00007b 	bl	0x7e8
     5f8:	e8bd8007 	pop	{r0, r1, r2, pc}
     5fc:	e92d400f 	push	{r0, r1, r2, r3, lr}
     600:	e1a01000 	mov	r1, r0
     604:	e3a00000 	mov	r0, #0
     608:	e3a0301c 	mov	r3, #28
     60c:	e59f2954 	ldr	r2, [pc, #2388]	; 0xf68
     610:	e1a00331 	lsr	r0, r1, r3
     614:	e200000f 	and	r0, r0, #15
     618:	e7d20000 	ldrb	r0, [r2, r0]
     61c:	eb000071 	bl	0x7e8
     620:	e2533004 	subs	r3, r3, #4
     624:	1afffff9 	bne	0x610
     628:	e1a00001 	mov	r0, r1
     62c:	e200000f 	and	r0, r0, #15
     630:	e7d20000 	ldrb	r0, [r2, r0]
     634:	eb00006b 	bl	0x7e8
     638:	e8bd800f 	pop	{r0, r1, r2, r3, pc}
     63c:	e92d400e 	push	{r1, r2, r3, lr}
     640:	e1a02000 	mov	r2, r0
     644:	e3a00000 	mov	r0, #0
     648:	e3510000 	cmp	r1, #0
     64c:	0a000003 	beq	0x660
     650:	e4d23001 	ldrb	r3, [r2], #1
     654:	e0800003 	add	r0, r0, r3
     658:	e2411001 	sub	r1, r1, #1
     65c:	eafffff9 	b	0x648
     660:	e8bd800e 	pop	{r1, r2, r3, pc}
     664:	e92d401e 	push	{r1, r2, r3, r4, lr}
     668:	e1a04001 	mov	r4, r1
     66c:	e1a01002 	mov	r1, r2
     670:	ebfffff1 	bl	0x63c
     674:	e1a03000 	mov	r3, r0
     678:	e1a00004 	mov	r0, r4
     67c:	ebffffee 	bl	0x63c
     680:	e0430000 	sub	r0, r3, r0
     684:	e8bd801e 	pop	{r1, r2, r3, r4, pc}
     688:	e92d407e 	push	{r1, r2, r3, r4, r5, r6, lr}
     68c:	e1a03000 	mov	r3, r0
     690:	e1a04001 	mov	r4, r1
     694:	e1a00002 	mov	r0, r2
     698:	e3520000 	cmp	r2, #0
     69c:	0a000006 	beq	0x6bc
     6a0:	e4d35001 	ldrb	r5, [r3], #1
     6a4:	e4d46001 	ldrb	r6, [r4], #1
     6a8:	e1550006 	cmp	r5, r6
     6ac:	1a000002 	bne	0x6bc
     6b0:	e2400001 	sub	r0, r0, #1
     6b4:	e2422001 	sub	r2, r2, #1
     6b8:	eafffff6 	b	0x698
     6bc:	e8bd807e 	pop	{r1, r2, r3, r4, r5, r6, pc}
     6c0:	e92d403f 	push	{r0, r1, r2, r3, r4, r5, lr}
     6c4:	e1a01000 	mov	r1, r0
     6c8:	e4d10001 	ldrb	r0, [r1], #1
     6cc:	e20000ff 	and	r0, r0, #255	; 0xff
     6d0:	e3500000 	cmp	r0, #0
     6d4:	0a000001 	beq	0x6e0
     6d8:	eb000042 	bl	0x7e8
     6dc:	eafffff9 	b	0x6c8
     6e0:	e8bd803f 	pop	{r0, r1, r2, r3, r4, r5, pc}
     6e4:	e92d4007 	push	{r0, r1, r2, lr}
     6e8:	e1a02000 	mov	r2, r0
     6ec:	e3510000 	cmp	r1, #0
     6f0:	0a000004 	beq	0x708
     6f4:	e4d20001 	ldrb	r0, [r2], #1
     6f8:	eb00003a 	bl	0x7e8
     6fc:	e2511001 	subs	r1, r1, #1
     700:	0a000000 	beq	0x708
     704:	eafffffa 	b	0x6f4
     708:	e8bd8007 	pop	{r0, r1, r2, pc}
     70c:	e92d4006 	push	{r1, r2, lr}
     710:	e350000a 	cmp	r0, #10
     714:	ba000001 	blt	0x720
     718:	e240000a 	sub	r0, r0, #10
     71c:	eafffffb 	b	0x710
     720:	e8bd8006 	pop	{r1, r2, pc}
     724:	e92d480f 	push	{r0, r1, r2, r3, fp, lr}
     728:	e14fb000 	mrs	fp, SPSR
     72c:	e59f0838 	ldr	r0, [pc, #2104]	; 0xf6c
     730:	e5901040 	ldr	r1, [r0, #64]	; 0x40
     734:	e201107f 	and	r1, r1, #127	; 0x7f
     738:	e3510048 	cmp	r1, #72	; 0x48
     73c:	0b000045 	bleq	0x858
     740:	e59f0824 	ldr	r0, [pc, #2084]	; 0xf6c
     744:	e3a01001 	mov	r1, #1
     748:	e5801048 	str	r1, [r0, #72]	; 0x48
     74c:	f57ff04f 	dsb	sy
     750:	e169f00b 	msr	SPSR_fc, fp
     754:	e8fd880f 	ldm	sp!, {r0, r1, r2, r3, fp, pc}^
     758:	eafffffe 	b	0x758
     75c:	eafffffe 	b	0x75c
     760:	e92d5fff 	push	{r0, r1, r2, r3, r4, r5, r6, r7, r8, r9, sl, fp, ip, lr}
     764:	e51e0004 	ldr	r0, [lr, #-4]
     768:	e3c014ff 	bic	r1, r0, #-16777216	; 0xff000000
     76c:	e59f07fc 	ldr	r0, [pc, #2044]	; 0xf70
     770:	ebffffd2 	bl	0x6c0
     774:	e1a00001 	mov	r0, r1
     778:	ebffff9f 	bl	0x5fc
     77c:	e59f07c0 	ldr	r0, [pc, #1984]	; 0xf44
     780:	ebffffce 	bl	0x6c0
     784:	e8fd9fff 	ldm	sp!, {r0, r1, r2, r3, r4, r5, r6, r7, r8, r9, sl, fp, ip, pc}^
     788:	eafffffe 	b	0x788
     78c:	eafffffe 	b	0x78c
     790:	e92d4003 	push	{r0, r1, lr}
     794:	e59f07d8 	ldr	r0, [pc, #2008]	; 0xf74
     798:	e59f17d8 	ldr	r1, [pc, #2008]	; 0xf78
     79c:	e5801048 	str	r1, [r0, #72]	; 0x48
     7a0:	eb000003 	bl	0x7b4
     7a4:	e59f17d0 	ldr	r1, [pc, #2000]	; 0xf7c
     7a8:	e5801048 	str	r1, [r0, #72]	; 0x48
     7ac:	eb000000 	bl	0x7b4
     7b0:	e8bd8003 	pop	{r0, r1, pc}
     7b4:	e5901034 	ldr	r1, [r0, #52]	; 0x34
     7b8:	e2011010 	and	r1, r1, #16
     7bc:	e3510000 	cmp	r1, #0
     7c0:	1afffffb 	bne	0x7b4
     7c4:	e12fff1e 	bx	lr
     7c8:	e92d4003 	push	{r0, r1, lr}
     7cc:	e59f17a0 	ldr	r1, [pc, #1952]	; 0xf74
     7d0:	e3a00028 	mov	r0, #40	; 0x28
     7d4:	e0811000 	add	r1, r1, r0
     7d8:	e5910000 	ldr	r0, [r1]
     7dc:	e3e00000 	mvn	r0, #0
     7e0:	e5810000 	str	r0, [r1]
     7e4:	e8bd8003 	pop	{r0, r1, pc}
     7e8:	e92d4006 	push	{r1, r2, lr}
     7ec:	e59f178c 	ldr	r1, [pc, #1932]	; 0xf80
     7f0:	e5912014 	ldr	r2, [r1, #20]
     7f4:	e2022020 	and	r2, r2, #32
     7f8:	e3520000 	cmp	r2, #0
     7fc:	0afffffb 	beq	0x7f0
     800:	e5c10000 	strb	r0, [r1]
     804:	e8bd8006 	pop	{r1, r2, pc}
     808:	e92d403e 	push	{r1, r2, r3, r4, r5, lr}
     80c:	e59f176c 	ldr	r1, [pc, #1900]	; 0xf80
     810:	e5912014 	ldr	r2, [r1, #20]
     814:	e2022001 	and	r2, r2, #1
     818:	e3520000 	cmp	r2, #0
     81c:	0afffffb 	beq	0x810
     820:	e5d10000 	ldrb	r0, [r1]
     824:	e8bd803e 	pop	{r1, r2, r3, r4, r5, pc}
     828:	e92d4007 	push	{r0, r1, r2, lr}
     82c:	e3a05000 	mov	r5, #0
     830:	e59f474c 	ldr	r4, [pc, #1868]	; 0xf84
     834:	e4c45001 	strb	r5, [r4], #1
     838:	e59f0740 	ldr	r0, [pc, #1856]	; 0xf80
     83c:	e2800004 	add	r0, r0, #4
     840:	e3a01001 	mov	r1, #1
     844:	e5801000 	str	r1, [r0]
     848:	e59f071c 	ldr	r0, [pc, #1820]	; 0xf6c
     84c:	e3a01c01 	mov	r1, #256	; 0x100
     850:	e58010c8 	str	r1, [r0, #200]	; 0xc8
     854:	e8bd8007 	pop	{r0, r1, r2, pc}
     858:	e92d403c 	push	{r2, r3, r4, r5, lr}
     85c:	ebffffe9 	bl	0x808
     860:	e350000d 	cmp	r0, #13
     864:	0a000015 	beq	0x8c0
     868:	e3500008 	cmp	r0, #8
     86c:	0a000002 	beq	0x87c
     870:	eb000021 	bl	0x8fc
     874:	eb00018e 	bl	0xeb4
     878:	ea00001e 	b	0x8f8
     87c:	e59f2700 	ldr	r2, [pc, #1792]	; 0xf84
     880:	e5d21000 	ldrb	r1, [r2]
     884:	e3510000 	cmp	r1, #0
     888:	0a000007 	beq	0x8ac
     88c:	e2411001 	sub	r1, r1, #1
     890:	e59f26ec 	ldr	r2, [pc, #1772]	; 0xf84
     894:	e4c21001 	strb	r1, [r2], #1
     898:	eb000185 	bl	0xeb4
     89c:	e3a00020 	mov	r0, #32
     8a0:	ebffffd0 	bl	0x7e8
     8a4:	eb000182 	bl	0xeb4
     8a8:	ea000012 	b	0x8f8
     8ac:	e3a0000d 	mov	r0, #13
     8b0:	ebffffcc 	bl	0x7e8
     8b4:	e59f066c 	ldr	r0, [pc, #1644]	; 0xf28
     8b8:	ebffff80 	bl	0x6c0
     8bc:	ea00000d 	b	0x8f8
     8c0:	e59f26bc 	ldr	r2, [pc, #1724]	; 0xf84
     8c4:	e5d21000 	ldrb	r1, [r2]
     8c8:	e59f36b8 	ldr	r3, [pc, #1720]	; 0xf88
     8cc:	eb000013 	bl	0x920
     8d0:	e1a05000 	mov	r5, r0
     8d4:	e3a01014 	mov	r1, #20
     8d8:	e59f06a8 	ldr	r0, [pc, #1704]	; 0xf88
     8dc:	ebfffef8 	bl	0x4c4
     8e0:	e1a00005 	mov	r0, r5
     8e4:	e3a05000 	mov	r5, #0
     8e8:	e59f4694 	ldr	r4, [pc, #1684]	; 0xf84
     8ec:	e4c45001 	strb	r5, [r4], #1
     8f0:	eb000169 	bl	0xe9c
     8f4:	eaffffff 	b	0x8f8
     8f8:	e8bd803c 	pop	{r2, r3, r4, r5, pc}
     8fc:	e92d400e 	push	{r1, r2, r3, lr}
     900:	e59f167c 	ldr	r1, [pc, #1660]	; 0xf84
     904:	e4d12001 	ldrb	r2, [r1], #1
     908:	e59f1678 	ldr	r1, [pc, #1656]	; 0xf88
     90c:	e7c10002 	strb	r0, [r1, r2]
     910:	e2822001 	add	r2, r2, #1
     914:	e59f1668 	ldr	r1, [pc, #1640]	; 0xf84
     918:	e4c12001 	strb	r2, [r1], #1
     91c:	e8bd800e 	pop	{r1, r2, r3, pc}
     920:	e92d403e 	push	{r1, r2, r3, r4, r5, lr}
     924:	e3a02004 	mov	r2, #4
     928:	e59f465c 	ldr	r4, [pc, #1628]	; 0xf8c
     92c:	ebfffe8b 	bl	0x360
     930:	e3500000 	cmp	r0, #0
     934:	1a000001 	bne	0x940
     938:	eb000049 	bl	0xa64
     93c:	ea000047 	b	0xa60
     940:	e3a02005 	mov	r2, #5
     944:	e59f4644 	ldr	r4, [pc, #1604]	; 0xf90
     948:	ebfffe84 	bl	0x360
     94c:	e3500000 	cmp	r0, #0
     950:	1a000001 	bne	0x95c
     954:	eb000048 	bl	0xa7c
     958:	ea000040 	b	0xa60
     95c:	e3a02006 	mov	r2, #6
     960:	e59f462c 	ldr	r4, [pc, #1580]	; 0xf94
     964:	ebfffe7d 	bl	0x360
     968:	e3500000 	cmp	r0, #0
     96c:	1a000001 	bne	0x978
     970:	eb000047 	bl	0xa94
     974:	ea000039 	b	0xa60
     978:	e3a02007 	mov	r2, #7
     97c:	e59f4614 	ldr	r4, [pc, #1556]	; 0xf98
     980:	ebfffe76 	bl	0x360
     984:	e3500000 	cmp	r0, #0
     988:	1a000001 	bne	0x994
     98c:	eb000043 	bl	0xaa0
     990:	ea000032 	b	0xa60
     994:	e3a02005 	mov	r2, #5
     998:	e59f45fc 	ldr	r4, [pc, #1532]	; 0xf9c
     99c:	ebfffe6f 	bl	0x360
     9a0:	e3500000 	cmp	r0, #0
     9a4:	1a000001 	bne	0x9b0
     9a8:	eb00003f 	bl	0xaac
     9ac:	ea00002b 	b	0xa60
     9b0:	e3a02003 	mov	r2, #3
     9b4:	e59f45e4 	ldr	r4, [pc, #1508]	; 0xfa0
     9b8:	ebfffe68 	bl	0x360
     9bc:	e3500000 	cmp	r0, #0
     9c0:	1a000001 	bne	0x9cc
     9c4:	eb000059 	bl	0xb30
     9c8:	ea000024 	b	0xa60
     9cc:	e3a02004 	mov	r2, #4
     9d0:	e59f45cc 	ldr	r4, [pc, #1484]	; 0xfa4
     9d4:	ebfffe61 	bl	0x360
     9d8:	e3500000 	cmp	r0, #0
     9dc:	1a000002 	bne	0x9ec
     9e0:	eb0000df 	bl	0xd64
     9e4:	e3a00001 	mov	r0, #1
     9e8:	ea00001c 	b	0xa60
     9ec:	e3a02004 	mov	r2, #4
     9f0:	e59f45b0 	ldr	r4, [pc, #1456]	; 0xfa8
     9f4:	ebfffe59 	bl	0x360
     9f8:	e3500000 	cmp	r0, #0
     9fc:	1a000001 	bne	0xa08
     a00:	eb000064 	bl	0xb98
     a04:	ea000015 	b	0xa60
     a08:	e3a02008 	mov	r2, #8
     a0c:	e59f4598 	ldr	r4, [pc, #1432]	; 0xfac
     a10:	ebfffe52 	bl	0x360
     a14:	e3500000 	cmp	r0, #0
     a18:	1a000001 	bne	0xa24
     a1c:	eb000062 	bl	0xbac
     a20:	ea00000e 	b	0xa60
     a24:	e3a02006 	mov	r2, #6
     a28:	e59f4580 	ldr	r4, [pc, #1408]	; 0xfb0
     a2c:	ebfffe4b 	bl	0x360
     a30:	e3500000 	cmp	r0, #0
     a34:	1a000001 	bne	0xa40
     a38:	eb00008c 	bl	0xc70
     a3c:	ea000007 	b	0xa60
     a40:	e3a02005 	mov	r2, #5
     a44:	e59f4568 	ldr	r4, [pc, #1384]	; 0xfb4
     a48:	ebfffe44 	bl	0x360
     a4c:	e3500000 	cmp	r0, #0
     a50:	1a000001 	bne	0xa5c
     a54:	eb000107 	bl	0xe78
     a58:	ea000000 	b	0xa60
     a5c:	eb000108 	bl	0xe84
     a60:	e8bd803e 	pop	{r1, r2, r3, r4, r5, pc}
     a64:	e92d4003 	push	{r0, r1, lr}
     a68:	e59f04d4 	ldr	r0, [pc, #1236]	; 0xf44
     a6c:	ebffff13 	bl	0x6c0
     a70:	e59f0540 	ldr	r0, [pc, #1344]	; 0xfb8
     a74:	ebffff11 	bl	0x6c0
     a78:	e8bd8003 	pop	{r0, r1, pc}
     a7c:	e92d4003 	push	{r0, r1, lr}
     a80:	e59f04bc 	ldr	r0, [pc, #1212]	; 0xf44
     a84:	ebffff0d 	bl	0x6c0
     a88:	e59f052c 	ldr	r0, [pc, #1324]	; 0xfbc
     a8c:	ebffff0b 	bl	0x6c0
     a90:	e8bd8003 	pop	{r0, r1, pc}
     a94:	e92d4003 	push	{r0, r1, lr}
     a98:	ebfffdb3 	bl	0x16c
     a9c:	e8bd8003 	pop	{r0, r1, pc}
     aa0:	e92d4003 	push	{r0, r1, lr}
     aa4:	ebfffdb5 	bl	0x180
     aa8:	e8bd8003 	pop	{r0, r1, pc}
     aac:	e92d403f 	push	{r0, r1, r2, r3, r4, r5, lr}
     ab0:	e59f24cc 	ldr	r2, [pc, #1228]	; 0xf84
     ab4:	e5d21000 	ldrb	r1, [r2]
     ab8:	e3a00006 	mov	r0, #6
     abc:	e0411000 	sub	r1, r1, r0
     ac0:	e3510001 	cmp	r1, #1
     ac4:	aa000002 	bge	0xad4
     ac8:	e59f04f0 	ldr	r0, [pc, #1264]	; 0xfc0
     acc:	ebfffefb 	bl	0x6c0
     ad0:	ea00000f 	b	0xb14
     ad4:	e59f24ac 	ldr	r2, [pc, #1196]	; 0xf88
     ad8:	e2822006 	add	r2, r2, #6
     adc:	e4d23001 	ldrb	r3, [r2], #1
     ae0:	e1a00003 	mov	r0, r3
     ae4:	e2400030 	sub	r0, r0, #48	; 0x30
     ae8:	eb00000a 	bl	0xb18
     aec:	e2411001 	sub	r1, r1, #1
     af0:	e3510000 	cmp	r1, #0
     af4:	1afffff8 	bne	0xadc
     af8:	ebfffd9b 	bl	0x16c
     afc:	ebfffea9 	bl	0x5a8
     b00:	ebfffd9e 	bl	0x180
     b04:	ebfffea7 	bl	0x5a8
     b08:	e2455001 	sub	r5, r5, #1
     b0c:	e3550000 	cmp	r5, #0
     b10:	1afffff8 	bne	0xaf8
     b14:	e8bd803f 	pop	{r0, r1, r2, r3, r4, r5, pc}
     b18:	e92d401f 	push	{r0, r1, r2, r3, r4, lr}
     b1c:	e3a0100a 	mov	r1, #10
     b20:	e1a04005 	mov	r4, r5
     b24:	e0050194 	mul	r5, r4, r1
     b28:	e0855000 	add	r5, r5, r0
     b2c:	e8bd801f 	pop	{r0, r1, r2, r3, r4, pc}
     b30:	e92d4003 	push	{r0, r1, lr}
     b34:	e59f2448 	ldr	r2, [pc, #1096]	; 0xf84
     b38:	e5d21000 	ldrb	r1, [r2]
     b3c:	e3a00004 	mov	r0, #4
     b40:	e0411000 	sub	r1, r1, r0
     b44:	e3510001 	cmp	r1, #1
     b48:	aa000002 	bge	0xb58
     b4c:	e59f046c 	ldr	r0, [pc, #1132]	; 0xfc0
     b50:	ebfffeda 	bl	0x6c0
     b54:	ea00000e 	b	0xb94
     b58:	e59f2428 	ldr	r2, [pc, #1064]	; 0xf88
     b5c:	e2822004 	add	r2, r2, #4
     b60:	e4d23001 	ldrb	r3, [r2], #1
     b64:	e1a00003 	mov	r0, r3
     b68:	e2400030 	sub	r0, r0, #48	; 0x30
     b6c:	ebffffe9 	bl	0xb18
     b70:	e2411001 	sub	r1, r1, #1
     b74:	e3510000 	cmp	r1, #0
     b78:	1afffff8 	bne	0xb60
     b7c:	e59f039c 	ldr	r0, [pc, #924]	; 0xf20
     b80:	e3a0461e 	mov	r4, #31457280	; 0x1e00000
     b84:	e5804000 	str	r4, [r0]
     b88:	e1a03a85 	lsl	r3, r5, #21
     b8c:	e59f0388 	ldr	r0, [pc, #904]	; 0xf1c
     b90:	e5803000 	str	r3, [r0]
     b94:	e8bd8003 	pop	{r0, r1, pc}
     b98:	e92d4003 	push	{r0, r1, lr}
     b9c:	e59f03a0 	ldr	r0, [pc, #928]	; 0xf44
     ba0:	ebfffec6 	bl	0x6c0
     ba4:	ebfffdbf 	bl	0x2a8
     ba8:	e8bd8003 	pop	{r0, r1, pc}
     bac:	e92d403f 	push	{r0, r1, r2, r3, r4, r5, lr}
     bb0:	e59f23cc 	ldr	r2, [pc, #972]	; 0xf84
     bb4:	e5d21000 	ldrb	r1, [r2]
     bb8:	e3a00009 	mov	r0, #9
     bbc:	e0411000 	sub	r1, r1, r0
     bc0:	e3510008 	cmp	r1, #8
     bc4:	0a000002 	beq	0xbd4
     bc8:	e59f03f0 	ldr	r0, [pc, #1008]	; 0xfc0
     bcc:	ebfffebb 	bl	0x6c0
     bd0:	ea000025 	b	0xc6c
     bd4:	e59f3358 	ldr	r3, [pc, #856]	; 0xf34
     bd8:	e59f13a8 	ldr	r1, [pc, #936]	; 0xf88
     bdc:	e2811009 	add	r1, r1, #9
     be0:	e4d10001 	ldrb	r0, [r1], #1
     be4:	e2400030 	sub	r0, r0, #48	; 0x30
     be8:	ebfffec7 	bl	0x70c
     bec:	e1a02000 	mov	r2, r0
     bf0:	e1a02202 	lsl	r2, r2, #4
     bf4:	e4d10001 	ldrb	r0, [r1], #1
     bf8:	e2400030 	sub	r0, r0, #48	; 0x30
     bfc:	ebfffec2 	bl	0x70c
     c00:	e1a04000 	mov	r4, r0
     c04:	e0822004 	add	r2, r2, r4
     c08:	e5832008 	str	r2, [r3, #8]
     c0c:	e4d10001 	ldrb	r0, [r1], #1
     c10:	e4d10001 	ldrb	r0, [r1], #1
     c14:	e2400030 	sub	r0, r0, #48	; 0x30
     c18:	ebfffebb 	bl	0x70c
     c1c:	e1a02000 	mov	r2, r0
     c20:	e1a02202 	lsl	r2, r2, #4
     c24:	e4d10001 	ldrb	r0, [r1], #1
     c28:	e2400030 	sub	r0, r0, #48	; 0x30
     c2c:	ebfffeb6 	bl	0x70c
     c30:	e1a04000 	mov	r4, r0
     c34:	e0822004 	add	r2, r2, r4
     c38:	e5832004 	str	r2, [r3, #4]
     c3c:	e4d10001 	ldrb	r0, [r1], #1
     c40:	e4d10001 	ldrb	r0, [r1], #1
     c44:	e2400030 	sub	r0, r0, #48	; 0x30
     c48:	ebfffeaf 	bl	0x70c
     c4c:	e1a02000 	mov	r2, r0
     c50:	e1a02202 	lsl	r2, r2, #4
     c54:	e4d10001 	ldrb	r0, [r1], #1
     c58:	e2400030 	sub	r0, r0, #48	; 0x30
     c5c:	ebfffeaa 	bl	0x70c
     c60:	e1a04000 	mov	r4, r0
     c64:	e0822004 	add	r2, r2, r4
     c68:	e5832000 	str	r2, [r3]
     c6c:	e8bd803f 	pop	{r0, r1, r2, r3, r4, r5, pc}
     c70:	e92d4003 	push	{r0, r1, lr}
     c74:	ebfffe4b 	bl	0x5a8
     c78:	ebfffd40 	bl	0x180
     c7c:	ebfffd49 	bl	0x1a8
     c80:	ebfffd51 	bl	0x1cc
     c84:	ebfffd5a 	bl	0x1f4
     c88:	ebfffe46 	bl	0x5a8
     c8c:	ebfffd53 	bl	0x1e0
     c90:	ebfffe44 	bl	0x5a8
     c94:	ebfffd56 	bl	0x1f4
     c98:	ebfffd46 	bl	0x1b8
     c9c:	ebfffe41 	bl	0x5a8
     ca0:	ebfffd4e 	bl	0x1e0
     ca4:	e3a01001 	mov	r1, #1
     ca8:	e1a01e01 	lsl	r1, r1, #28
     cac:	e59f2270 	ldr	r2, [pc, #624]	; 0xf24
     cb0:	e5922000 	ldr	r2, [r2]
     cb4:	e0012002 	and	r2, r1, r2
     cb8:	e3520000 	cmp	r2, #0
     cbc:	1bfffd51 	blne	0x208
     cc0:	1bffff66 	blne	0xa60
     cc4:	ebfffe37 	bl	0x5a8
     cc8:	ebfffd3f 	bl	0x1cc
     ccc:	ebfffd48 	bl	0x1f4
     cd0:	ebfffd2f 	bl	0x194
     cd4:	ebfffe33 	bl	0x5a8
     cd8:	ebfffd40 	bl	0x1e0
     cdc:	ebfffe31 	bl	0x5a8
     ce0:	ebfffd43 	bl	0x1f4
     ce4:	ebfffd33 	bl	0x1b8
     ce8:	ebfffe2e 	bl	0x5a8
     cec:	ebfffd3b 	bl	0x1e0
     cf0:	ebfffe2c 	bl	0x5a8
     cf4:	ebfffd1c 	bl	0x16c
     cf8:	ebfffd2a 	bl	0x1a8
     cfc:	ebfffd32 	bl	0x1cc
     d00:	ebfffd3b 	bl	0x1f4
     d04:	ebfffe27 	bl	0x5a8
     d08:	ebfffd34 	bl	0x1e0
     d0c:	ebfffe25 	bl	0x5a8
     d10:	ebfffd37 	bl	0x1f4
     d14:	ebfffd27 	bl	0x1b8
     d18:	ebfffe22 	bl	0x5a8
     d1c:	ebfffd2f 	bl	0x1e0
     d20:	ebfffe20 	bl	0x5a8
     d24:	ebfffd28 	bl	0x1cc
     d28:	ebfffd31 	bl	0x1f4
     d2c:	ebfffd18 	bl	0x194
     d30:	ebfffe1c 	bl	0x5a8
     d34:	ebfffd29 	bl	0x1e0
     d38:	ebfffe1a 	bl	0x5a8
     d3c:	ebfffd2c 	bl	0x1f4
     d40:	ebfffd1c 	bl	0x1b8
     d44:	ebfffe17 	bl	0x5a8
     d48:	ebfffd24 	bl	0x1e0
     d4c:	ebfffe15 	bl	0x5a8
     d50:	ebfffd0a 	bl	0x180
     d54:	ebfffd13 	bl	0x1a8
     d58:	ebfffd1b 	bl	0x1cc
     d5c:	ebfffd24 	bl	0x1f4
     d60:	e8bd8003 	pop	{r0, r1, pc}
     d64:	ebfffe0f 	bl	0x5a8
     d68:	e59f01d4 	ldr	r0, [pc, #468]	; 0xf44
     d6c:	ebfffe53 	bl	0x6c0
     d70:	e59f024c 	ldr	r0, [pc, #588]	; 0xfc4
     d74:	ebfffe51 	bl	0x6c0
     d78:	ebfffe0a 	bl	0x5a8
     d7c:	e59f0244 	ldr	r0, [pc, #580]	; 0xfc8
     d80:	ebfffe4e 	bl	0x6c0
     d84:	ebfffe07 	bl	0x5a8
     d88:	e59f023c 	ldr	r0, [pc, #572]	; 0xfcc
     d8c:	ebfffe4b 	bl	0x6c0
     d90:	e3a01001 	mov	r1, #1
     d94:	e1a01e01 	lsl	r1, r1, #28
     d98:	e59f2184 	ldr	r2, [pc, #388]	; 0xf24
     d9c:	e5922000 	ldr	r2, [r2]
     da0:	e0012002 	and	r2, r1, r2
     da4:	e3520000 	cmp	r2, #0
     da8:	1bfffd16 	blne	0x208
     dac:	1bffff2b 	blne	0xa60
     db0:	ebfffdfc 	bl	0x5a8
     db4:	e59f0214 	ldr	r0, [pc, #532]	; 0xfd0
     db8:	ebfffe40 	bl	0x6c0
     dbc:	ebfffdf9 	bl	0x5a8
     dc0:	e59f020c 	ldr	r0, [pc, #524]	; 0xfd4
     dc4:	ebfffe3d 	bl	0x6c0
     dc8:	ebfffdf6 	bl	0x5a8
     dcc:	e59f0204 	ldr	r0, [pc, #516]	; 0xfd8
     dd0:	ebfffe3a 	bl	0x6c0
     dd4:	ebfffdf3 	bl	0x5a8
     dd8:	e59f01fc 	ldr	r0, [pc, #508]	; 0xfdc
     ddc:	ebfffe37 	bl	0x6c0
     de0:	e3a01001 	mov	r1, #1
     de4:	e1a01e01 	lsl	r1, r1, #28
     de8:	e59f2134 	ldr	r2, [pc, #308]	; 0xf24
     dec:	e5922000 	ldr	r2, [r2]
     df0:	e0012002 	and	r2, r1, r2
     df4:	e3520000 	cmp	r2, #0
     df8:	1bfffd02 	blne	0x208
     dfc:	1bffff17 	blne	0xa60
     e00:	ebfffde8 	bl	0x5a8
     e04:	e59f01d4 	ldr	r0, [pc, #468]	; 0xfe0
     e08:	ebfffe2c 	bl	0x6c0
     e0c:	ebfffde5 	bl	0x5a8
     e10:	e59f01cc 	ldr	r0, [pc, #460]	; 0xfe4
     e14:	ebfffe29 	bl	0x6c0
     e18:	ebfffde2 	bl	0x5a8
     e1c:	e59f01c4 	ldr	r0, [pc, #452]	; 0xfe8
     e20:	ebfffe26 	bl	0x6c0
     e24:	ebfffddf 	bl	0x5a8
     e28:	e59f01bc 	ldr	r0, [pc, #444]	; 0xfec
     e2c:	ebfffe23 	bl	0x6c0
     e30:	ebfffddc 	bl	0x5a8
     e34:	e59f01b4 	ldr	r0, [pc, #436]	; 0xff0
     e38:	ebfffe20 	bl	0x6c0
     e3c:	ebfffdd9 	bl	0x5a8
     e40:	e59f01ac 	ldr	r0, [pc, #428]	; 0xff4
     e44:	ebfffe1d 	bl	0x6c0
     e48:	ebfffdd6 	bl	0x5a8
     e4c:	e59f01a4 	ldr	r0, [pc, #420]	; 0xff8
     e50:	ebfffe1a 	bl	0x6c0
     e54:	ebfffdd3 	bl	0x5a8
     e58:	e59f019c 	ldr	r0, [pc, #412]	; 0xffc
     e5c:	ebfffe17 	bl	0x6c0
     e60:	ebfffdd0 	bl	0x5a8
     e64:	e59f0194 	ldr	r0, [pc, #404]	; 0x1000
     e68:	ebfffe14 	bl	0x6c0
     e6c:	ebfffdcd 	bl	0x5a8
     e70:	e59f00cc 	ldr	r0, [pc, #204]	; 0xf44
     e74:	e8bd8003 	pop	{r0, r1, pc}
     e78:	e92d4003 	push	{r0, r1, lr}
     e7c:	ebfffe51 	bl	0x7c8
     e80:	e8bd8003 	pop	{r0, r1, pc}
     e84:	e92d4003 	push	{r0, r1, lr}
     e88:	e59f00b4 	ldr	r0, [pc, #180]	; 0xf44
     e8c:	ebfffe0b 	bl	0x6c0
     e90:	e59f016c 	ldr	r0, [pc, #364]	; 0x1004
     e94:	ebfffe09 	bl	0x6c0
     e98:	e8bd8003 	pop	{r0, r1, pc}
     e9c:	e92d4003 	push	{r0, r1, lr}
     ea0:	e59f009c 	ldr	r0, [pc, #156]	; 0xf44
     ea4:	ebfffe05 	bl	0x6c0
     ea8:	e59f0078 	ldr	r0, [pc, #120]	; 0xf28
     eac:	ebfffe03 	bl	0x6c0
     eb0:	e8bd8003 	pop	{r0, r1, pc}
     eb4:	e92d4003 	push	{r0, r1, lr}
     eb8:	e3a0000d 	mov	r0, #13
     ebc:	ebfffe49 	bl	0x7e8
     ec0:	e59f0060 	ldr	r0, [pc, #96]	; 0xf28
     ec4:	ebfffdfd 	bl	0x6c0
     ec8:	e59f20b4 	ldr	r2, [pc, #180]	; 0xf84
     ecc:	e5d21000 	ldrb	r1, [r2]
     ed0:	e59f00b0 	ldr	r0, [pc, #176]	; 0xf88
     ed4:	ebfffe02 	bl	0x6e4
     ed8:	e8bd8003 	pop	{r0, r1, pc}
     edc:	80001b00 	andhi	r1, r0, r0, lsl #22
     ee0:	80000048 	andhi	r0, r0, r8, asr #32
     ee4:	80000724 	andhi	r0, r0, r4, lsr #14
     ee8:	80000038 	andhi	r0, r0, r8, lsr r0
     eec:	80000760 	andhi	r0, r0, r0, ror #14
     ef0:	800014c8 	andhi	r1, r0, r8, asr #9
     ef4:	800014be 			; <UNDEFINED> instruction: 0x800014be
     ef8:	80000044 	andhi	r0, r0, r4, asr #32
     efc:	800000a8 	andhi	r0, r0, r8, lsr #1
     f00:	80000010 	andhi	r0, r0, r0, lsl r0
     f04:	44e000ac 	strbtmi	r0, [r0], #172	; 0xac
     f08:	00040002 	andeq	r0, r4, r2
     f0c:	4804c134 	stmdami	r4, {r2, r4, r5, r8, lr, pc}
     f10:	4804c034 	stmdami	r4, {r2, r4, r5, lr, pc}
     f14:	4804c148 	stmdami	r4, {r3, r6, r8, lr, pc}
     f18:	482000e8 	stmdami	r0!, {r3, r5, r6, r7}
     f1c:	4804c194 	stmdami	r4, {r2, r4, r7, r8, lr, pc}
     f20:	4804c190 	stmdami	r4, {r4, r7, r8, lr, pc}
     f24:	4804c02c 	stmdami	r4, {r2, r3, r5, lr, pc}
     f28:	800010b3 	strhhi	r1, [r0], -r3
     f2c:	44e00804 	strbtmi	r0, [r0], #2052	; 0x804
     f30:	44e00800 	strbtmi	r0, [r0], #2048	; 0x800
     f34:	44e3e000 	strbtmi	lr, [r3], #0
     f38:	83e70b13 	mvnhi	r0, #19456	; 0x4c00
     f3c:	95a4f1e0 	strls	pc, [r4, #480]!	; 0x1e0
     f40:	80001490 	mulhi	r0, r0, r4
     f44:	800010e8 	andhi	r1, r0, r8, ror #1
     f48:	800014bc 			; <UNDEFINED> instruction: 0x800014bc
     f4c:	800014a6 	andhi	r1, r0, r6, lsr #9
     f50:	800014bd 			; <UNDEFINED> instruction: 0x800014bd
     f54:	80001449 	andhi	r1, r0, r9, asr #8
     f58:	80001473 	andhi	r1, r0, r3, ror r4
     f5c:	8000145e 	andhi	r1, r0, lr, asr r4
     f60:	800010aa 	andhi	r1, r0, sl, lsr #1
     f64:	800010ad 	andhi	r1, r0, sp, lsr #1
     f68:	8000107d 	andhi	r1, r0, sp, ror r0
     f6c:	48200000 	stmdami	r0!, {}	; <UNPREDICTABLE>
     f70:	8000105f 	andhi	r1, r0, pc, asr r0
     f74:	44e35000 	strbtmi	r5, [r3], #0
     f78:	0000aaaa 	andeq	sl, r0, sl, lsr #21
     f7c:	00005555 	andeq	r5, r0, r5, asr r5
     f80:	44e09000 	strbtmi	r9, [r0], #0
     f84:	800014dd 	ldrdhi	r1, [r0], -sp
     f88:	800014c9 	andhi	r1, r0, r9, asr #9
     f8c:	800013a5 	andhi	r1, r0, r5, lsr #7
     f90:	800013aa 	andhi	r1, r0, sl, lsr #7
     f94:	800013b0 			; <UNDEFINED> instruction: 0x800013b0
     f98:	800013b7 			; <UNDEFINED> instruction: 0x800013b7
     f9c:	800013bf 			; <UNDEFINED> instruction: 0x800013bf
     fa0:	800013c5 	andhi	r1, r0, r5, asr #7
     fa4:	800013de 	ldrdhi	r1, [r0], -lr
     fa8:	800013c9 	andhi	r1, r0, r9, asr #7
     fac:	800013ce 	andhi	r1, r0, lr, asr #7
     fb0:	800013d7 	ldrdhi	r1, [r0], -r7
     fb4:	800013e3 	andhi	r1, r0, r3, ror #7
     fb8:	800010fa 	strdhi	r1, [r0], -sl
     fbc:	800010eb 	andhi	r1, r0, fp, ror #1
     fc0:	800010d2 	ldrdhi	r1, [r0], -r2
     fc4:	800013e9 	andhi	r1, r0, r9, ror #7
     fc8:	800013ef 	andhi	r1, r0, pc, ror #7
     fcc:	800013f5 	strdhi	r1, [r0], -r5
     fd0:	800013fb 	strdhi	r1, [r0], -fp
     fd4:	80001401 	andhi	r1, r0, r1, lsl #8
     fd8:	80001407 	andhi	r1, r0, r7, lsl #8
     fdc:	8000140d 	andhi	r1, r0, sp, lsl #8
     fe0:	80001413 	andhi	r1, r0, r3, lsl r4
     fe4:	80001419 	andhi	r1, r0, r9, lsl r4
     fe8:	8000141f 	andhi	r1, r0, pc, lsl r4
     fec:	80001425 	andhi	r1, r0, r5, lsr #8
     ff0:	8000142b 	andhi	r1, r0, fp, lsr #8
     ff4:	80001431 	andhi	r1, r0, r1, lsr r4
     ff8:	80001437 	andhi	r1, r0, r7, lsr r4
     ffc:	8000143d 	andhi	r1, r0, sp, lsr r4
    1000:	80001443 	andhi	r1, r0, r3, asr #8
    1004:	800010be 	strhhi	r1, [r0], -lr
	...
    1010:	20515249 	subscs	r5, r1, r9, asr #4
    1014:	65646f4d 	strbvs	r6, [r4, #-3917]!	; 0xfffff0b3
    1018:	000d0a21 	andeq	r0, sp, r1, lsr #20
    101c:	20514946 	subscs	r4, r1, r6, asr #18
    1020:	65646f4d 	strbvs	r6, [r4, #-3917]!	; 0xfffff0b3
    1024:	000d0a21 	andeq	r0, sp, r1, lsr #20
    1028:	66657250 			; <UNDEFINED> instruction: 0x66657250
    102c:	68637465 	stmdavs	r3!, {r0, r2, r5, r6, sl, ip, sp, lr}^
    1030:	6f624120 	svcvs	0x00624120
    1034:	0a217472 	beq	0x85e204
    1038:	6144000d 	cmpvs	r4, sp
    103c:	41206174 			; <UNDEFINED> instruction: 0x41206174
    1040:	74726f62 	ldrbtvc	r6, [r2], #-3938	; 0xfffff09e
    1044:	000d0a21 	andeq	r0, sp, r1, lsr #20
    1048:	65646e55 	strbvs	r6, [r4, #-3669]!	; 0xfffff1ab
    104c:	656e6966 	strbvs	r6, [lr, #-2406]!	; 0xfffff69a
    1050:	78452064 	stmdavc	r5, {r2, r5, r6, sp}^
    1054:	74706563 	ldrbtvc	r6, [r0], #-1379	; 0xfffffa9d
    1058:	216e6f69 	cmncs	lr, r9, ror #30
    105c:	53000d0a 	movwpl	r0, #3338	; 0xd0a
    1060:	7774666f 	ldrbvc	r6, [r4, -pc, ror #12]!
    1064:	20657261 	rsbcs	r7, r5, r1, ror #4
    1068:	65746e49 	ldrbvs	r6, [r4, #-3657]!	; 0xfffff1b7
    106c:	70757272 	rsbsvc	r7, r5, r2, ror r2
    1070:	754e2074 	strbvc	r2, [lr, #-116]	; 0xffffff8c
    1074:	7265626d 	rsbvc	r6, r5, #-805306362	; 0xd0000006
    1078:	0d0a203a 	stceq	0, cr2, [sl, #-232]	; 0xffffff18
    107c:	32313000 	eorscc	r3, r1, #0
    1080:	36353433 			; <UNDEFINED> instruction: 0x36353433
    1084:	41393837 	teqmi	r9, r7, lsr r8
    1088:	45444342 	strbmi	r4, [r4, #-834]	; 0xfffffcbe
    108c:	2d2d0046 	stccs	0, cr0, [sp, #-280]!	; 0xfffffee8
    1090:	2d2d2d2d 	stccs	13, cr2, [sp, #-180]!	; 0xffffff4c
    1094:	2d2d2d2d 	stccs	13, cr2, [sp, #-180]!	; 0xffffff4c
    1098:	2d2d2d2d 	stccs	13, cr2, [sp, #-180]!	; 0xffffff4c
    109c:	2d2d2d2d 	stccs	13, cr2, [sp, #-180]!	; 0xffffff4c
    10a0:	2d2d2d2d 	stccs	13, cr2, [sp, #-180]!	; 0xffffff4c
    10a4:	0a2d2d2d 	beq	0xb4c560
    10a8:	7830000d 	ldmdavc	r0!, {r0, r2, r3}
    10ac:	3a202000 	bcc	0x8090b4
    10b0:	61002020 	tstvs	r0, r0, lsr #32
    10b4:	75687472 	strbvc	r7, [r8, #-1138]!	; 0xfffffb8e
    10b8:	3a7e4072 	bcc	0x1f91288
    10bc:	6f630020 	svcvs	0x00630020
    10c0:	646e616d 	strbtvs	r6, [lr], #-365	; 0xfffffe93
    10c4:	6e69206f 	cdpvs	0, 6, cr2, cr9, cr15, {3}
    10c8:	696c6176 	stmdbvs	ip!, {r1, r2, r4, r5, r6, r8, sp, lr}^
    10cc:	21216f64 			; <UNDEFINED> instruction: 0x21216f64
    10d0:	72610021 	rsbvc	r0, r1, #33	; 0x21
    10d4:	656d7567 	strbvs	r7, [sp, #-1383]!	; 0xfffffa99
    10d8:	206f746e 	rsbcs	r7, pc, lr, ror #8
    10dc:	61766e69 	cmnvs	r6, r9, ror #28
    10e0:	6f64696c 	svcvs	0x0064696c
    10e4:	00212121 	eoreq	r2, r1, r1, lsr #2
    10e8:	48000d0a 	stmdami	r0, {r1, r3, r8, sl, fp}
    10ec:	6f6c6c65 	svcvs	0x006c6c65
    10f0:	726f7720 	rsbvc	r7, pc, #32, 14	; 0x800000
    10f4:	2121646c 			; <UNDEFINED> instruction: 0x2121646c
    10f8:	4f430021 	svcmi	0x00430021
    10fc:	444e414d 	strbmi	r4, [lr], #-333	; 0xfffffeb3
    1100:	0a3a534f 	beq	0xe95e44
    1104:	4c45480d 	mcrrmi	8, 0, r4, r5, cr13
    1108:	2d204f4c 	stccs	15, cr4, [r0, #-304]!	; 0xfffffed0
    110c:	6964203e 	stmdbvs	r4!, {r1, r2, r3, r4, r5, sp}^
    1110:	65746967 	ldrbvs	r6, [r4, #-2407]!	; 0xfffff699
    1114:	65682720 	strbvs	r2, [r8, #-1824]!	; 0xfffff8e0
    1118:	276f6c6c 	strbcs	r6, [pc, -ip, ror #24]!
    111c:	72617020 	rsbvc	r7, r1, #32
    1120:	6d692061 	stclvs	0, cr2, [r9, #-388]!	; 0xfffffe7c
    1124:	6d697270 	sfmvs	f7, 2, [r9, #-448]!	; 0xfffffe40
    1128:	27207269 	strcs	r7, [r0, -r9, ror #4]!
    112c:	6c6c6568 	cfstr64vs	mvdx6, [ip], #-416	; 0xfffffe60
    1130:	6f77206f 	svcvs	0x0077206f
    1134:	21646c72 	smccs	18114	; 0x46c2
    1138:	3b272121 	blcc	0x9c95c4
    113c:	454c0d0a 	strbmi	r0, [ip, #-3338]	; 0xfffff2f6
    1140:	4e4f2044 	cdpmi	0, 4, cr2, cr15, cr4, {2}
    1144:	203e2d20 	eorscs	r2, lr, r0, lsr #26
    1148:	69676964 	stmdbvs	r7!, {r2, r5, r6, r8, fp, sp, lr}^
    114c:	27206574 			; <UNDEFINED> instruction: 0x27206574
    1150:	2064656c 	rsbcs	r6, r4, ip, ror #10
    1154:	3b276e6f 	blcc	0x9dcb18
    1158:	454c0d0a 	strbmi	r0, [ip, #-3338]	; 0xfffff2f6
    115c:	464f2044 	strbmi	r2, [pc], -r4, asr #32
    1160:	3e2d2046 	cdpcc	0, 2, cr2, cr13, cr6, {2}
    1164:	67696420 	strbvs	r6, [r9, -r0, lsr #8]!
    1168:	20657469 	rsbcs	r7, r5, r9, ror #8
    116c:	64656c27 	strbtvs	r6, [r5], #-3111	; 0xfffff3d9
    1170:	66666f20 	strbtvs	r6, [r6], -r0, lsr #30
    1174:	0d0a3b27 	vstreq	d3, [sl, #-156]	; 0xffffff64
    1178:	4e494c42 	cdpmi	12, 4, cr4, cr9, cr2, {2}
    117c:	3e2d204b 	cdpcc	0, 2, cr2, cr13, cr11, {2}
    1180:	67696420 	strbvs	r6, [r9, -r0, lsr #8]!
    1184:	20657469 	rsbcs	r7, r5, r9, ror #8
    1188:	696c6227 	stmdbvs	ip!, {r0, r1, r2, r5, r9, sp, lr}^
    118c:	3c206b6e 			; <UNDEFINED> instruction: 0x3c206b6e
    1190:	6f203e4e 	svcvs	0x00203e4e
    1194:	274e2720 	strbcs	r2, [lr, -r0, lsr #14]
    1198:	20a9c320 	adccs	ip, r9, r0, lsr #6
    119c:	756e206f 	strbvc	r2, [lr, #-111]!	; 0xffffff91
    11a0:	6f72656d 	svcvs	0x0072656d
    11a4:	20656420 	rsbcs	r6, r5, r0, lsr #8
    11a8:	657a6576 	ldrbvs	r6, [sl, #-1398]!	; 0xfffffa8a
    11ac:	75712073 	ldrbvc	r2, [r1, #-115]!	; 0xffffff8d
    11b0:	65722065 	ldrbvs	r2, [r2, #-101]!	; 0xffffff9b
    11b4:	65746570 	ldrbvs	r6, [r4, #-1392]!	; 0xfffffa90
    11b8:	0d0a203b 	stceq	0, cr2, [sl, #-236]	; 0xffffff14
    11bc:	41584548 	cmpmi	r8, r8, asr #10
    11c0:	3e2d2053 	mcrcc	0, 1, r2, cr13, cr3, {2}
    11c4:	67696420 	strbvs	r6, [r9, -r0, lsr #8]!
    11c8:	20657469 	rsbcs	r7, r5, r9, ror #8
    11cc:	78656827 	stmdavc	r5!, {r0, r1, r2, r5, fp, sp, lr}^
    11d0:	69202761 	stmdbvs	r0!, {r0, r5, r6, r8, r9, sl, sp}
    11d4:	6972706d 	ldmdbvs	r2!, {r0, r2, r3, r5, r6, ip, sp, lr}^
    11d8:	6420656d 	strtvs	r6, [r0], #-1389	; 0xfffffa93
    11dc:	20302065 	eorscs	r2, r0, r5, rrx
    11e0:	35312061 	ldrcc	r2, [r1, #-97]!	; 0xffffff9f
    11e4:	20736f20 	rsbscs	r6, r3, r0, lsr #30
    11e8:	61786568 	cmnvs	r8, r8, ror #10
    11ec:	69636564 	stmdbvs	r3!, {r2, r5, r6, r8, sl, sp, lr}^
    11f0:	7369616d 	cmnvc	r9, #1073741851	; 0x4000001b
    11f4:	20616e20 	rsbcs	r6, r1, r0, lsr #28
    11f8:	616c6574 	smcvs	50772	; 0xc654
    11fc:	6c206520 	cfstr32vs	mvfx6, [r0], #-128	; 0xffffff80
    1200:	3b736465 	blcc	0x1cda39c
    1204:	480d0a20 	stmdami	sp, {r5, r9, fp}
    1208:	20415845 	subcs	r5, r1, r5, asr #16
    120c:	42204d45 	eormi	r4, r0, #4416	; 0x1140
    1210:	52414e49 	subpl	r4, r1, #1168	; 0x490
    1214:	2d204f49 	stccs	15, cr4, [r0, #-292]!	; 0xfffffedc
    1218:	6964203e 	stmdbvs	r4!, {r1, r2, r3, r4, r5, sp}^
    121c:	65746967 	ldrbvs	r6, [r4, #-2407]!	; 0xfffff699
    1220:	69622720 	stmdbvs	r2!, {r5, r8, r9, sl, sp}^
    1224:	7972616e 	ldmdbvc	r2!, {r1, r2, r3, r5, r6, r8, sp, lr}^
    1228:	61702027 	cmnvs	r0, r7, lsr #32
    122c:	69206172 	stmdbvs	r0!, {r1, r4, r5, r6, r8, sp, lr}
    1230:	6972706d 	ldmdbvs	r2!, {r0, r2, r3, r5, r6, ip, sp, lr}^
    1234:	2072696d 	rsbscs	r6, r2, sp, ror #18
    1238:	6820736f 	stmdavs	r0!, {r0, r1, r2, r3, r5, r6, r8, r9, ip, sp, lr}
    123c:	73617865 	cmnvc	r1, #6619136	; 0x650000
    1240:	206f6e20 	rsbcs	r6, pc, r0, lsr #28
    1244:	3b64656c 	blcc	0x191a7fc
    1248:	480d0a20 	stmdami	sp, {r5, r9, fp}
    124c:	20415845 	subcs	r5, r1, r5, asr #16
    1250:	2044454c 	subcs	r4, r4, ip, asr #10
    1254:	64203e2d 	strtvs	r3, [r0], #-3629	; 0xfffff1d3
    1258:	74696769 	strbtvc	r6, [r9], #-1897	; 0xfffff897
    125c:	6c272065 	stcvs	0, cr2, [r7], #-404	; 0xfffffe6c
    1260:	3c206465 	cfstrscc	mvf6, [r0], #-404	; 0xfffffe6c
    1264:	20273e48 	eorcs	r3, r7, r8, asr #28
    1268:	4827206f 	stmdami	r7!, {r0, r1, r2, r3, r5, r6, sp}
    126c:	65722027 	ldrbvs	r2, [r2, #-39]!	; 0xffffffd9
    1270:	65726566 	ldrbvs	r6, [r2, #-1382]!	; 0xfffffa9a
    1274:	2065732d 	rsbcs	r7, r5, sp, lsr #6
    1278:	756e2061 	strbvc	r2, [lr, #-97]!	; 0xffffff9f
    127c:	6f72656d 	svcvs	0x0072656d
    1280:	78656820 	stmdavc	r5!, {r5, fp, sp, lr}^
    1284:	63656461 	cmnvs	r5, #1627389952	; 0x61000000
    1288:	6c616d69 	stclvs	13, cr6, [r1], #-420	; 0xfffffe5c
    128c:	20656420 	rsbcs	r6, r5, r0, lsr #8
    1290:	20612030 	rsbcs	r2, r1, r0, lsr r0
    1294:	0a3b3531 	beq	0xece760
    1298:	4d49540d 	cfstrdmi	mvd5, [r9, #-52]	; 0xffffffcc
    129c:	3e2d2045 	cdpcc	0, 2, cr2, cr13, cr5, {2}
    12a0:	67696420 	strbvs	r6, [r9, -r0, lsr #8]!
    12a4:	20657469 	rsbcs	r7, r5, r9, ror #8
    12a8:	6d697427 	cfstrdvs	mvd7, [r9, #-156]!	; 0xffffff64
    12ac:	70202765 	eorvc	r2, r0, r5, ror #14
    12b0:	20617261 	rsbcs	r7, r1, r1, ror #4
    12b4:	20726576 	rsbscs	r6, r2, r6, ror r5
    12b8:	7472206f 	ldrbtvc	r2, [r2], #-111	; 0xffffff91
    12bc:	74612063 	strbtvc	r2, [r1], #-99	; 0xffffff9d
    12c0:	3b6c6175 	blcc	0x1b1989c
    12c4:	45530d0a 	ldrbmi	r0, [r3, #-3338]	; 0xfffff2f6
    12c8:	49542054 	ldmdbmi	r4, {r2, r4, r6, sp}^
    12cc:	2d20454d 	cfstr32cs	mvfx4, [r0, #-308]!	; 0xfffffecc
    12d0:	6964203e 	stmdbvs	r4!, {r1, r2, r3, r4, r5, sp}^
    12d4:	65746967 	ldrbvs	r6, [r4, #-2407]!	; 0xfffff699
    12d8:	65732720 	ldrbvs	r2, [r3, #-1824]!	; 0xfffff8e0
    12dc:	69742074 	ldmdbvs	r4!, {r2, r4, r5, r6, sp}^
    12e0:	3c20656d 	cfstr32cc	mvfx6, [r0], #-436	; 0xfffffe4c
    12e4:	6d3a6868 	ldcvs	8, cr6, [sl, #-416]!	; 0xfffffe60
    12e8:	73733a6d 	cmnvc	r3, #446464	; 0x6d000
    12ec:	6320273e 			; <UNDEFINED> instruction: 0x6320273e
    12f0:	69666e6f 	stmdbvs	r6!, {r0, r1, r2, r3, r5, r6, r9, sl, fp, sp, lr}^
    12f4:	61727567 	cmnvs	r2, r7, ror #10
    12f8:	74722072 	ldrbtvc	r2, [r2], #-114	; 0xffffff8e
    12fc:	27202c63 	strcs	r2, [r0, -r3, ror #24]!
    1300:	20276868 	eorcs	r6, r7, r8, ror #16
    1304:	6820a9c3 	stmdavs	r0!, {r0, r1, r6, r7, r8, fp, sp, pc}
    1308:	7361726f 	cmnvc	r1, #-268435450	; 0xf0000006
    130c:	6d27202c 	stcvs	0, cr2, [r7, #-176]!	; 0xffffff50
    1310:	6d20276d 	stcvs	7, cr2, [r0, #-436]!	; 0xfffffe4c
    1314:	74756e69 	ldrbtvc	r6, [r5], #-3689	; 0xfffff197
    1318:	6520736f 	strvs	r7, [r0, #-879]!	; 0xfffffc91
    131c:	73732720 	cmnvc	r3, #32, 14	; 0x800000
    1320:	65732027 	ldrbvs	r2, [r3, #-39]!	; 0xffffffd9
    1324:	646e7567 	strbtvs	r7, [lr], #-1383	; 0xfffffa99
    1328:	203b736f 	eorscs	r7, fp, pc, ror #6
    132c:	45520d0a 	ldrbmi	r0, [r2, #-3338]	; 0xfffff2f6
    1330:	20544553 	subscs	r4, r4, r3, asr r5
    1334:	64203e2d 	strtvs	r3, [r0], #-3629	; 0xfffff1d3
    1338:	74696769 	strbtvc	r6, [r9], #-1897	; 0xfffff897
    133c:	72272065 	eorvc	r2, r7, #101	; 0x65
    1340:	74657365 	strbtvc	r7, [r5], #-869	; 0xfffffc9b
    1344:	61702027 	cmnvs	r0, r7, lsr #32
    1348:	72206172 	eorvc	r6, r0, #-2147483620	; 0x8000001c
    134c:	696e6965 	stmdbvs	lr!, {r0, r2, r5, r6, r8, fp, sp, lr}^
    1350:	72616963 	rsbvc	r6, r1, #1622016	; 0x18c000
    1354:	70206120 	eorvc	r6, r0, r0, lsr #2
    1358:	6163616c 	cmnvs	r3, ip, ror #2
    135c:	490d0a3b 	stmdbmi	sp, {r0, r1, r3, r4, r5, r9, fp}
    1360:	5245544e 	subpl	r5, r5, #1308622848	; 0x4e000000
    1364:	504d4f52 	subpl	r4, sp, r2, asr pc
    1368:	2d205245 	sfmcs	f5, 4, [r0, #-276]!	; 0xfffffeec
    136c:	6170203e 	cmnvs	r0, lr, lsr r0
    1370:	69206172 	stmdbvs	r0!, {r1, r4, r5, r6, r8, sp, lr}
    1374:	7265746e 	rsbvc	r7, r5, #1845493760	; 0x6e000000
    1378:	706d6f72 	rsbvc	r6, sp, r2, ror pc
    137c:	75207265 	strvc	r7, [r0, #-613]!	; 0xfffffd9b
    1380:	7420616d 	strtvc	r6, [r0], #-365	; 0xfffffe93
    1384:	66657261 	strbtvs	r7, [r5], -r1, ror #4
    1388:	62202c61 	eorvs	r2, r0, #24832	; 0x6100
    138c:	61747361 	cmnvs	r4, r1, ror #6
    1390:	65727020 	ldrbvs	r7, [r2, #-32]!	; 0xffffffe0
    1394:	6e6f6973 			; <UNDEFINED> instruction: 0x6e6f6973
    1398:	6f207261 	svcvs	0x00207261
    139c:	746f6220 	strbtvc	r6, [pc], #-544	; 0x13a4
    13a0:	2e6fa3c3 	cdpcs	3, 6, cr10, cr15, cr3, {6}
    13a4:	6c656800 	stclvs	8, cr6, [r5], #-0
    13a8:	65680070 	strbvs	r0, [r8, #-112]!	; 0xffffff90
    13ac:	006f6c6c 	rsbeq	r6, pc, ip, ror #24
    13b0:	2064656c 	rsbcs	r6, r4, ip, ror #10
    13b4:	6c006e6f 	stcvs	14, cr6, [r0], {111}	; 0x6f
    13b8:	6f206465 	svcvs	0x00206465
    13bc:	62006666 	andvs	r6, r0, #106954752	; 0x6600000
    13c0:	6b6e696c 	blvs	0x1b9b978
    13c4:	64656c00 	strbtvs	r6, [r5], #-3072	; 0xfffff400
    13c8:	6d697400 	cfstrdvs	mvd7, [r9, #-0]
    13cc:	65730065 	ldrbvs	r0, [r3, #-101]!	; 0xffffff9b
    13d0:	69742074 	ldmdbvs	r4!, {r2, r4, r5, r6, sp}^
    13d4:	6200656d 	andvs	r6, r0, #457179136	; 0x1b400000
    13d8:	72616e69 	rsbvc	r6, r1, #1680	; 0x690
    13dc:	65680079 	strbvs	r0, [r8, #-121]!	; 0xffffff87
    13e0:	72006178 	andvc	r6, r0, #120, 2
    13e4:	74657365 	strbtvc	r7, [r5], #-869	; 0xfffffc9b
    13e8:	30783000 	rsbscc	r3, r8, r0
    13ec:	30002030 	andcc	r2, r0, r0, lsr r0
    13f0:	20313078 	eorscs	r3, r1, r8, ror r0
    13f4:	30783000 	rsbscc	r3, r8, r0
    13f8:	30002032 	andcc	r2, r0, r2, lsr r0
    13fc:	20333078 	eorscs	r3, r3, r8, ror r0
    1400:	30783000 	rsbscc	r3, r8, r0
    1404:	30002034 	andcc	r2, r0, r4, lsr r0
    1408:	20353078 	eorscs	r3, r5, r8, ror r0
    140c:	30783000 	rsbscc	r3, r8, r0
    1410:	30002036 	andcc	r2, r0, r6, lsr r0
    1414:	20373078 	eorscs	r3, r7, r8, ror r0
    1418:	30783000 	rsbscc	r3, r8, r0
    141c:	30002038 	andcc	r2, r0, r8, lsr r0
    1420:	20393078 	eorscs	r3, r9, r8, ror r0
    1424:	30783000 	rsbscc	r3, r8, r0
    1428:	30002041 	andcc	r2, r0, r1, asr #32
    142c:	20423078 	subcs	r3, r2, r8, ror r0
    1430:	30783000 	rsbscc	r3, r8, r0
    1434:	30002043 	andcc	r2, r0, r3, asr #32
    1438:	20443078 	subcs	r3, r4, r8, ror r0
    143c:	30783000 	rsbscc	r3, r8, r0
    1440:	30002045 	andcc	r2, r0, r5, asr #32
    1444:	20463078 	subcs	r3, r6, r8, ror r0
    1448:	70206100 	eorvc	r6, r0, r0, lsl #2
    144c:	656d6972 	strbvs	r6, [sp, #-2418]!	; 0xfffff68e
    1450:	20617269 	rsbcs	r7, r1, r9, ror #4
    1454:	656d2065 	strbvs	r2, [sp, #-101]!	; 0xffffff9b
    1458:	0a726f6e 	beq	0x1c9d218
    145c:	2061000d 	rsbcs	r0, r1, sp
    1460:	6d697270 	sfmvs	f7, 2, [r9, #-448]!	; 0xfffffe40
    1464:	61726965 	cmnvs	r2, r5, ror #18
    1468:	6d206520 	cfstr32vs	mvfx6, [r0, #-128]!	; 0xffffff80
    146c:	726f6961 	rsbvc	r6, pc, #1589248	; 0x184000
    1470:	61000d0a 	tstvs	r0, sl, lsl #26
    1474:	61756420 	cmnvs	r5, r0, lsr #8
    1478:	c3732073 	cmngt	r3, #115	; 0x73
    147c:	69206fa3 	stmdbvs	r0!, {r0, r1, r5, r7, r8, r9, sl, fp, sp, lr}
    1480:	69617567 	stmdbvs	r1!, {r0, r1, r2, r5, r6, r8, sl, ip, sp, lr}^
    1484:	000d0a73 	andeq	r0, sp, r3, ror sl
